target datalayout = "e-m:e-p270:32:32-p271:32:32-p272:64:64-i64:64-i128:128-f80:128-n8:16:32:64-S128"
target triple = "x86_64-pc-linux-gnu"

%"class.std::basic_ostream" = type { ptr, %"class.std::basic_ios" }
%"class.std::basic_ios" = type { %"class.std::ios_base", ptr, i8, i8, ptr, ptr, ptr, ptr }
%"class.std::ios_base" = type { ptr, i64, i64, i32, i32, i32, ptr, %"struct.std::ios_base::_Words", [8 x %"struct.std::ios_base::_Words"], i32, ptr, %"class.std::locale" }
%"struct.std::ios_base::_Words" = type { ptr, i64 }
%"class.std::locale" = type { ptr }

@_ZTISt9exception = external constant ptr
@_ZSt4cerr = external global %"class.std::basic_ostream", align 8
@.str.11 = private unnamed_addr constant [39 x i8] c"error while processing client packet: \00", align 1
@.str.12 = private unnamed_addr constant [14 x i8] c"unknown error\00", align 1

; Function Attrs: mustprogress uwtable
define internal noundef ptr @_ZL10run_serverPv(ptr noundef %0) #6 personality ptr @__gxx_personality_v0 {
  %2 = alloca ptr, align 8
  %3 = alloca ptr, align 8
  %4 = alloca ptr, align 8
  %5 = alloca ptr, align 8
  %6 = alloca i32, align 4
  %7 = alloca ptr, align 8
  store ptr %0, ptr %3, align 8
  %8 = load ptr, ptr %3, align 8
  store ptr %8, ptr %4, align 8
  br label %9

9:                                                ; preds = %12, %1
  br label %10

10:                                               ; preds = %9
  %11 = load ptr, ptr %4, align 8
  invoke void @_ZN6Server15socket_readableEv(ptr noundef nonnull align 8 dereferenceable(264) %11)
          to label %12 unwind label %13

12:                                               ; preds = %10
  br label %9, !llvm.loop !5

13:                                               ; preds = %10
  %14 = landingpad { ptr, i32 }
          catch ptr @_ZTISt9exception
          catch ptr null
  %15 = extractvalue { ptr, i32 } %14, 0
  store ptr %15, ptr %5, align 8
  %16 = extractvalue { ptr, i32 } %14, 1
  store i32 %16, ptr %6, align 4
  br label %17

17:                                               ; preds = %13
  %18 = load i32, ptr %6, align 4
  %19 = call i32 @llvm.eh.typeid.for.p0(ptr @_ZTISt9exception) #1
  %20 = icmp eq i32 %18, %19
  br i1 %20, label %21, label %35

21:                                               ; preds = %17
  %22 = load ptr, ptr %5, align 8
  %23 = call ptr @__cxa_begin_catch(ptr %22) #1
  store ptr %23, ptr %7, align 8
  %24 = invoke noundef nonnull align 8 dereferenceable(8) ptr @_ZStlsISt11char_traitsIcEERSt13basic_ostreamIcT_ES5_PKc(ptr noundef nonnull align 8 dereferenceable(8) @_ZSt4cerr, ptr noundef @.str.11)
          to label %25 unwind label %49

25:                                               ; preds = %21
  %26 = load ptr, ptr %7, align 8
  %27 = load ptr, ptr %26, align 8
  %28 = getelementptr inbounds ptr, ptr %27, i64 2
  %29 = load ptr, ptr %28, align 8
  %30 = call noundef ptr %29(ptr noundef nonnull align 8 dereferenceable(8) %26) #1
  %31 = invoke noundef nonnull align 8 dereferenceable(8) ptr @_ZStlsISt11char_traitsIcEERSt13basic_ostreamIcT_ES5_PKc(ptr noundef nonnull align 8 dereferenceable(8) %24, ptr noundef %30)
          to label %32 unwind label %49

32:                                               ; preds = %25
  %33 = invoke noundef nonnull align 8 dereferenceable(8) ptr @_ZNSolsEPFRSoS_E(ptr noundef nonnull align 8 dereferenceable(8) %31, ptr noundef @_ZSt4endlIcSt11char_traitsIcEERSt13basic_ostreamIT_T0_ES6_)
          to label %34 unwind label %49

34:                                               ; preds = %32
  store ptr null, ptr %2, align 8
  call void @__cxa_end_catch()
  br label %55

35:                                               ; preds = %17
  %36 = load ptr, ptr %5, align 8
  %37 = call ptr @__cxa_begin_catch(ptr %36) #1
  %38 = invoke noundef nonnull align 8 dereferenceable(8) ptr @_ZStlsISt11char_traitsIcEERSt13basic_ostreamIcT_ES5_PKc(ptr noundef nonnull align 8 dereferenceable(8) @_ZSt4cerr, ptr noundef @.str.11)
          to label %39 unwind label %44

39:                                               ; preds = %35
  %40 = invoke noundef nonnull align 8 dereferenceable(8) ptr @_ZStlsISt11char_traitsIcEERSt13basic_ostreamIcT_ES5_PKc(ptr noundef nonnull align 8 dereferenceable(8) %38, ptr noundef @.str.12)
          to label %41 unwind label %44

41:                                               ; preds = %39
  %42 = invoke noundef nonnull align 8 dereferenceable(8) ptr @_ZNSolsEPFRSoS_E(ptr noundef nonnull align 8 dereferenceable(8) %40, ptr noundef @_ZSt4endlIcSt11char_traitsIcEERSt13basic_ostreamIT_T0_ES6_)
          to label %43 unwind label %44

43:                                               ; preds = %41
  store ptr null, ptr %2, align 8
  call void @__cxa_end_catch()
  br label %55

44:                                               ; preds = %41, %39, %35
  %45 = landingpad { ptr, i32 }
          cleanup
  %46 = extractvalue { ptr, i32 } %45, 0
  store ptr %46, ptr %5, align 8
  %47 = extractvalue { ptr, i32 } %45, 1
  store i32 %47, ptr %6, align 4
  invoke void @__cxa_end_catch()
          to label %48 unwind label %62

48:                                               ; preds = %44
  br label %57

49:                                               ; preds = %32, %25, %21
  %50 = landingpad { ptr, i32 }
          cleanup
  %51 = extractvalue { ptr, i32 } %50, 0
  store ptr %51, ptr %5, align 8
  %52 = extractvalue { ptr, i32 } %50, 1
  store i32 %52, ptr %6, align 4
  invoke void @__cxa_end_catch()
          to label %53 unwind label %62

53:                                               ; preds = %49
  br label %57

54:                                               ; No predecessors!
  call void @llvm.trap()
  unreachable

55:                                               ; preds = %43, %34
  %56 = load ptr, ptr %2, align 8
  ret ptr %56

57:                                               ; preds = %53, %48
  %58 = load ptr, ptr %5, align 8
  %59 = load i32, ptr %6, align 4
  %60 = insertvalue { ptr, i32 } poison, ptr %58, 0
  %61 = insertvalue { ptr, i32 } %60, i32 %59, 1
  resume { ptr, i32 } %61

62:                                               ; preds = %49, %44
  %63 = landingpad { ptr, i32 }
          catch ptr null
  %64 = extractvalue { ptr, i32 } %63, 0
  call void @__clang_call_terminate(ptr %64) #18
  unreachable
}