; Function Attrs: mustprogress uwtable
define internal noundef ptr @_ZL10run_serverPv(ptr noundef %0) #5 personality ptr @__gxx_personality_v0 {
  br label %2

2:                                                ; preds = %2, %1
  invoke void @_ZN6Server15socket_readableEv(ptr noundef nonnull align 8 dereferenceable(264) %0)
          to label %2 unwind label %3, !llvm.loop !5

3:                                                ; preds = %2
  %4 = landingpad { ptr, i32 }
          catch ptr @_ZTISt9exception
          catch ptr null
  %5 = extractvalue { ptr, i32 } %4, 0
  %6 = extractvalue { ptr, i32 } %4, 1
  %7 = tail call i32 @llvm.eh.typeid.for.p0(ptr nonnull @_ZTISt9exception) #26
  %8 = icmp eq i32 %6, %7
  %9 = tail call ptr @__cxa_begin_catch(ptr %5) #26
  br i1 %8, label %10, label %20

10:                                               ; preds = %3
  %11 = invoke noundef nonnull align 8 dereferenceable(8) ptr @_ZStlsISt11char_traitsIcEERSt13basic_ostreamIcT_ES5_PKc(ptr noundef nonnull align 8 dereferenceable(8) @_ZSt4cerr, ptr noundef nonnull @.str.11)
          to label %12 unwind label %28

12:                                               ; preds = %10
  %13 = load ptr, ptr %9, align 8
  %14 = getelementptr inbounds i8, ptr %13, i64 16
  %15 = load ptr, ptr %14, align 8
  %16 = tail call noundef ptr %15(ptr noundef nonnull align 8 dereferenceable(8) %9) #26
  %17 = invoke noundef nonnull align 8 dereferenceable(8) ptr @_ZStlsISt11char_traitsIcEERSt13basic_ostreamIcT_ES5_PKc(ptr noundef nonnull align 8 dereferenceable(8) %11, ptr noundef %16)
          to label %18 unwind label %28

18:                                               ; preds = %12
  %19 = invoke noundef nonnull align 8 dereferenceable(8) ptr @_ZNSolsEPFRSoS_E(ptr noundef nonnull align 8 dereferenceable(8) %17, ptr noundef nonnull @_ZSt4endlIcSt11char_traitsIcEERSt13basic_ostreamIT_T0_ES6_)
          to label %30 unwind label %28

20:                                               ; preds = %3
  %21 = invoke noundef nonnull align 8 dereferenceable(8) ptr @_ZStlsISt11char_traitsIcEERSt13basic_ostreamIcT_ES5_PKc(ptr noundef nonnull align 8 dereferenceable(8) @_ZSt4cerr, ptr noundef nonnull @.str.11)
          to label %22 unwind label %26

22:                                               ; preds = %20
  %23 = invoke noundef nonnull align 8 dereferenceable(8) ptr @_ZStlsISt11char_traitsIcEERSt13basic_ostreamIcT_ES5_PKc(ptr noundef nonnull align 8 dereferenceable(8) %21, ptr noundef nonnull @.str.12)
          to label %24 unwind label %26

24:                                               ; preds = %22
  %25 = invoke noundef nonnull align 8 dereferenceable(8) ptr @_ZNSolsEPFRSoS_E(ptr noundef nonnull align 8 dereferenceable(8) %23, ptr noundef nonnull @_ZSt4endlIcSt11char_traitsIcEERSt13basic_ostreamIT_T0_ES6_)
          to label %30 unwind label %26

26:                                               ; preds = %24, %22, %20
  %27 = landingpad { ptr, i32 }
          cleanup
  invoke void @__cxa_end_catch()
          to label %31 unwind label %32

28:                                               ; preds = %18, %12, %10
  %29 = landingpad { ptr, i32 }
          cleanup
  invoke void @__cxa_end_catch()
          to label %31 unwind label %32

30:                                               ; preds = %24, %18
  tail call void @__cxa_end_catch()
  ret ptr null

31:                                               ; preds = %28, %26
  %.pn = phi { ptr, i32 } [ %29, %28 ], [ %27, %26 ]
  resume { ptr, i32 } %.pn

32:                                               ; preds = %28, %26
  %33 = landingpad { ptr, i32 }
          catch ptr null
  %34 = extractvalue { ptr, i32 } %33, 0
  tail call void @__clang_call_terminate(ptr %34) #28
  unreachable
}